target datalayout = "e-m:e-p270:32:32-p271:32:32-p272:64:64-i64:64-i128:128-f80:128-n8:16:32:64-S128"
target triple = "x86_64-pc-linux-gnu"

%struct.IndexDeleteCounts = type { i16, i16, i16 }

; Function Attrs: inlinehint nounwind uwtable
define internal i32 @pg_leftmost_one_pos32(i32 noundef %0) #3 {
  %2 = alloca i32, align 4
  store i32 %0, ptr %2, align 4
  %3 = load i32, ptr %2, align 4
  %4 = call i32 @llvm.ctlz.i32(i32 %3, i1 true)
  %5 = sub i32 31, %4
  ret i32 %5
}

; Function Attrs: inlinehint nounwind uwtable
define internal i32 @pg_nextpower2_32(i32 noundef %0) #3 {
  %2 = alloca i32, align 4
  %3 = alloca i32, align 4
  store i32 %0, ptr %3, align 4
  %4 = load i32, ptr %3, align 4
  %5 = load i32, ptr %3, align 4
  %6 = sub i32 %5, 1
  %7 = and i32 %4, %6
  %8 = icmp eq i32 %7, 0
  br i1 %8, label %9, label %11

9:                                                ; preds = %1
  %10 = load i32, ptr %3, align 4
  store i32 %10, ptr %2, align 4
  br label %16

11:                                               ; preds = %1
  %12 = load i32, ptr %3, align 4
  %13 = call i32 @pg_leftmost_one_pos32(i32 noundef %12)
  %14 = add i32 %13, 1
  %15 = shl i32 1, %14
  store i32 %15, ptr %2, align 4
  br label %16

16:                                               ; preds = %11, %9
  %17 = load i32, ptr %2, align 4
  ret i32 %17
}

; Function Attrs: nounwind uwtable
define internal i32 @bottomup_sort_and_shrink_cmp(ptr noundef %0, ptr noundef %1) #0 {
  %3 = alloca i32, align 4
  %4 = alloca ptr, align 8
  %5 = alloca ptr, align 8
  %6 = alloca ptr, align 8
  %7 = alloca ptr, align 8
  %8 = alloca i32, align 4
  %9 = alloca i32, align 4
  %10 = alloca i32, align 4
  store ptr %0, ptr %4, align 8
  store ptr %1, ptr %5, align 8
  call void @llvm.lifetime.start.p0(i64 8, ptr %6) #10
  %11 = load ptr, ptr %4, align 8
  store ptr %11, ptr %6, align 8
  call void @llvm.lifetime.start.p0(i64 8, ptr %7) #10
  %12 = load ptr, ptr %5, align 8
  store ptr %12, ptr %7, align 8
  %13 = load ptr, ptr %6, align 8
  %14 = getelementptr inbounds nuw %struct.IndexDeleteCounts, ptr %13, i32 0, i32 0
  %15 = load i16, ptr %14, align 2
  %16 = sext i16 %15 to i32
  %17 = load ptr, ptr %7, align 8
  %18 = getelementptr inbounds nuw %struct.IndexDeleteCounts, ptr %17, i32 0, i32 0
  %19 = load i16, ptr %18, align 2
  %20 = sext i16 %19 to i32
  %21 = icmp sgt i32 %16, %20
  br i1 %21, label %22, label %23

22:                                               ; preds = %2
  store i32 -1, ptr %3, align 4
  store i32 1, ptr %8, align 4
  br label %91

23:                                               ; preds = %2
  %24 = load ptr, ptr %6, align 8
  %25 = getelementptr inbounds nuw %struct.IndexDeleteCounts, ptr %24, i32 0, i32 0
  %26 = load i16, ptr %25, align 2
  %27 = sext i16 %26 to i32
  %28 = load ptr, ptr %7, align 8
  %29 = getelementptr inbounds nuw %struct.IndexDeleteCounts, ptr %28, i32 0, i32 0
  %30 = load i16, ptr %29, align 2
  %31 = sext i16 %30 to i32
  %32 = icmp slt i32 %27, %31
  br i1 %32, label %33, label %34

33:                                               ; preds = %23
  store i32 1, ptr %3, align 4
  store i32 1, ptr %8, align 4
  br label %91

34:                                               ; preds = %23
  %35 = load ptr, ptr %6, align 8
  %36 = getelementptr inbounds nuw %struct.IndexDeleteCounts, ptr %35, i32 0, i32 1
  %37 = load i16, ptr %36, align 2
  %38 = sext i16 %37 to i32
  %39 = load ptr, ptr %7, align 8
  %40 = getelementptr inbounds nuw %struct.IndexDeleteCounts, ptr %39, i32 0, i32 1
  %41 = load i16, ptr %40, align 2
  %42 = sext i16 %41 to i32
  %43 = icmp ne i32 %38, %42
  br i1 %43, label %44, label %68

44:                                               ; preds = %34
  call void @llvm.lifetime.start.p0(i64 4, ptr %9) #10
  %45 = load ptr, ptr %6, align 8
  %46 = getelementptr inbounds nuw %struct.IndexDeleteCounts, ptr %45, i32 0, i32 1
  %47 = load i16, ptr %46, align 2
  %48 = sext i16 %47 to i32
  %49 = call i32 @pg_nextpower2_32(i32 noundef %48)
  store i32 %49, ptr %9, align 4
  call void @llvm.lifetime.start.p0(i64 4, ptr %10) #10
  %50 = load ptr, ptr %7, align 8
  %51 = getelementptr inbounds nuw %struct.IndexDeleteCounts, ptr %50, i32 0, i32 1
  %52 = load i16, ptr %51, align 2
  %53 = sext i16 %52 to i32
  %54 = call i32 @pg_nextpower2_32(i32 noundef %53)
  store i32 %54, ptr %10, align 4
  %55 = load i32, ptr %9, align 4
  %56 = load i32, ptr %10, align 4
  %57 = icmp ugt i32 %55, %56
  br i1 %57, label %58, label %59

58:                                               ; preds = %44
  store i32 -1, ptr %3, align 4
  store i32 1, ptr %8, align 4
  br label %65

59:                                               ; preds = %44
  %60 = load i32, ptr %9, align 4
  %61 = load i32, ptr %10, align 4
  %62 = icmp ult i32 %60, %61
  br i1 %62, label %63, label %64

63:                                               ; preds = %59
  store i32 1, ptr %3, align 4
  store i32 1, ptr %8, align 4
  br label %65

64:                                               ; preds = %59
  store i32 0, ptr %8, align 4
  br label %65

65:                                               ; preds = %64, %63, %58
  call void @llvm.lifetime.end.p0(i64 4, ptr %10) #10
  call void @llvm.lifetime.end.p0(i64 4, ptr %9) #10
  %66 = load i32, ptr %8, align 4
  switch i32 %66, label %91 [
    i32 0, label %67
  ]

67:                                               ; preds = %65
  br label %68

68:                                               ; preds = %67, %34
  %69 = load ptr, ptr %6, align 8
  %70 = getelementptr inbounds nuw %struct.IndexDeleteCounts, ptr %69, i32 0, i32 2
  %71 = load i16, ptr %70, align 2
  %72 = sext i16 %71 to i32
  %73 = load ptr, ptr %7, align 8
  %74 = getelementptr inbounds nuw %struct.IndexDeleteCounts, ptr %73, i32 0, i32 2
  %75 = load i16, ptr %74, align 2
  %76 = sext i16 %75 to i32
  %77 = icmp sgt i32 %72, %76
  br i1 %77, label %78, label %79

78:                                               ; preds = %68
  store i32 1, ptr %3, align 4
  store i32 1, ptr %8, align 4
  br label %91

79:                                               ; preds = %68
  %80 = load ptr, ptr %6, align 8
  %81 = getelementptr inbounds nuw %struct.IndexDeleteCounts, ptr %80, i32 0, i32 2
  %82 = load i16, ptr %81, align 2
  %83 = sext i16 %82 to i32
  %84 = load ptr, ptr %7, align 8
  %85 = getelementptr inbounds nuw %struct.IndexDeleteCounts, ptr %84, i32 0, i32 2
  %86 = load i16, ptr %85, align 2
  %87 = sext i16 %86 to i32
  %88 = icmp slt i32 %83, %87
  br i1 %88, label %89, label %90

89:                                               ; preds = %79
  store i32 -1, ptr %3, align 4
  store i32 1, ptr %8, align 4
  br label %91

90:                                               ; preds = %79
  unreachable

91:                                               ; preds = %89, %78, %65, %33, %22
  call void @llvm.lifetime.end.p0(i64 8, ptr %7) #10
  call void @llvm.lifetime.end.p0(i64 8, ptr %6) #10
  %92 = load i32, ptr %3, align 4
  ret i32 %92
}