; Function Attrs: mustprogress nofree norecurse nosync nounwind willreturn memory(argmem: read) uwtable
define internal range(i32 -1, 2) i32 @bottomup_sort_and_shrink_cmp(ptr noundef readonly captures(none) %0, ptr noundef readonly captures(none) %1) #7 {
  %3 = load i16, ptr %0, align 2
  %4 = load i16, ptr %1, align 2
  %5 = icmp sgt i16 %3, %4
  br i1 %5, label %.thread, label %6

6:                                                ; preds = %2
  %7 = icmp slt i16 %3, %4
  br i1 %7, label %.thread, label %8

8:                                                ; preds = %6
  %9 = getelementptr inbounds nuw i8, ptr %0, i64 2
  %10 = load i16, ptr %9, align 2
  %11 = getelementptr inbounds nuw i8, ptr %1, i64 2
  %12 = load i16, ptr %11, align 2
  %.not = icmp eq i16 %10, %12
  br i1 %.not, label %28, label %13

13:                                               ; preds = %8
  %14 = sext i16 %10 to i32
  %15 = tail call range(i32 0, 33) i32 @llvm.ctpop.i32(i32 range(i32 -32768, 32768) %14)
  %16 = icmp samesign ult i32 %15, 2
  %17 = tail call range(i32 0, 33) i32 @llvm.ctlz.i32(i32 range(i32 -32768, 32768) %14, i1 true)
  %18 = xor i32 %17, 31
  %19 = shl nuw i32 2, %18
  %.0.i = select i1 %16, i32 %14, i32 %19
  %20 = sext i16 %12 to i32
  %21 = tail call range(i32 0, 33) i32 @llvm.ctpop.i32(i32 range(i32 -32768, 32768) %20)
  %22 = icmp samesign ult i32 %21, 2
  %23 = tail call range(i32 0, 33) i32 @llvm.ctlz.i32(i32 range(i32 -32768, 32768) %20, i1 true)
  %24 = xor i32 %23, 31
  %25 = shl nuw i32 2, %24
  %.0.i28 = select i1 %22, i32 %20, i32 %25
  %26 = icmp ugt i32 %.0.i, %.0.i28
  br i1 %26, label %.thread, label %27

27:                                               ; preds = %13
  %.not31 = icmp ult i32 %.0.i, %.0.i28
  br i1 %.not31, label %.thread, label %28

28:                                               ; preds = %27, %8
  %29 = getelementptr inbounds nuw i8, ptr %0, i64 4
  %30 = load i16, ptr %29, align 2
  %31 = getelementptr inbounds nuw i8, ptr %1, i64 4
  %32 = load i16, ptr %31, align 2
  %33 = icmp sgt i16 %30, %32
  %spec.select = select i1 %33, i32 1, i32 -1
  br label %.thread

.thread:                                          ; preds = %13, %28, %6, %2, %27
  %.0 = phi i32 [ 1, %27 ], [ -1, %2 ], [ 1, %6 ], [ %spec.select, %28 ], [ -1, %13 ]
  ret i32 %.0
}